; Function Attrs: nounwind uwtable
define hidden zeroext i1 @SDL_AddSurfaceAlternateImage_REAL(ptr noundef captures(address_is_null) %0, ptr noundef %1) local_unnamed_addr #2 {
  %.not.i = icmp eq ptr %0, null
  br i1 %.not.i, label %SDL_SurfaceValid.exit.thread, label %SDL_SurfaceValid.exit

SDL_SurfaceValid.exit:                            ; preds = %2
  %3 = getelementptr inbounds nuw i8, ptr %0, i64 40
  %4 = load ptr, ptr %3, align 8
  %5 = icmp eq ptr %4, @SDL_surface_magic
  br i1 %5, label %7, label %SDL_SurfaceValid.exit.thread

SDL_SurfaceValid.exit.thread:                     ; preds = %2, %SDL_SurfaceValid.exit
  %6 = tail call zeroext i1 (ptr, ...) @SDL_SetError_REAL(ptr noundef nonnull @.str, ptr noundef nonnull @.str.5) #10
  br label %30

7:                                                ; preds = %SDL_SurfaceValid.exit
  %.not.i14 = icmp eq ptr %1, null
  br i1 %.not.i14, label %SDL_SurfaceValid.exit15.thread, label %SDL_SurfaceValid.exit15

SDL_SurfaceValid.exit15:                          ; preds = %7
  %8 = getelementptr inbounds nuw i8, ptr %1, i64 40
  %9 = load ptr, ptr %8, align 8
  %10 = icmp eq ptr %9, @SDL_surface_magic
  br i1 %10, label %12, label %SDL_SurfaceValid.exit15.thread

SDL_SurfaceValid.exit15.thread:                   ; preds = %7, %SDL_SurfaceValid.exit15
  %11 = tail call zeroext i1 (ptr, ...) @SDL_SetError_REAL(ptr noundef nonnull @.str, ptr noundef nonnull @.str.10) #10
  br label %30

12:                                               ; preds = %SDL_SurfaceValid.exit15
  %13 = getelementptr inbounds nuw i8, ptr %0, i64 88
  %14 = load ptr, ptr %13, align 8
  %15 = getelementptr inbounds nuw i8, ptr %0, i64 80
  %16 = load i32, ptr %15, align 8
  %17 = add nsw i32 %16, 1
  %18 = sext i32 %17 to i64
  %19 = shl nsw i64 %18, 3
  %20 = tail call ptr @SDL_realloc_REAL(ptr noundef %14, i64 noundef %19) #11
  %.not.not = icmp eq ptr %20, null
  br i1 %.not.not, label %30, label %21

21:                                               ; preds = %12
  %22 = load i32, ptr %15, align 8
  %23 = sext i32 %22 to i64
  %24 = getelementptr inbounds ptr, ptr %20, i64 %23
  store ptr %1, ptr %24, align 8
  store ptr %20, ptr %13, align 8
  %25 = load i32, ptr %15, align 8
  %26 = add nsw i32 %25, 1
  store i32 %26, ptr %15, align 8
  %27 = getelementptr inbounds nuw i8, ptr %1, i64 32
  %28 = load i32, ptr %27, align 8
  %29 = add nsw i32 %28, 1
  store i32 %29, ptr %27, align 8
  br label %30

30:                                               ; preds = %21, %12, %SDL_SurfaceValid.exit15.thread, %SDL_SurfaceValid.exit.thread
  %.0 = phi i1 [ %11, %SDL_SurfaceValid.exit15.thread ], [ %6, %SDL_SurfaceValid.exit.thread ], [ false, %12 ], [ true, %21 ]
  ret i1 %.0
}